; Function Attrs: nounwind uwtable
define zeroext range(i8 0, 2) i8 @l_Array_anyMUnsafe_any___at_ImportCompletion_isImportCmdCompletionRequest___spec__2(ptr noundef %0, ptr noundef readonly captures(none) %1, i64 noundef %2, i64 noundef %3) local_unnamed_addr #0 {
  %.not60 = icmp eq i64 %2, %3
  br i1 %.not60, label %lean_dec.exit._crit_edge, label %.lr.ph

.lr.ph:                                           ; preds = %4
  %5 = getelementptr inbounds nuw i8, ptr %1, i64 24
  br label %6

6:                                                ; preds = %.lr.ph, %lean_dec.exit38
  %.03061 = phi i64 [ %2, %.lr.ph ], [ %.333, %lean_dec.exit38 ]
  %7 = getelementptr inbounds nuw [0 x ptr], ptr %5, i64 0, i64 %.03061
  %8 = load ptr, ptr %7, align 8, !tbaa !4
  %9 = ptrtoint ptr %8 to i64
  %10 = and i64 %9, 1
  %.not.i49 = icmp eq i64 %10, 0
  br i1 %.not.i49, label %11, label %lean_array_uget.exit

11:                                               ; preds = %6
  %.val.i.i = load i32, ptr %8, align 4, !tbaa !8
  %12 = icmp sgt i32 %.val.i.i, 0
  br i1 %12, label %13, label %15, !prof !11

13:                                               ; preds = %11
  %14 = add nuw i32 %.val.i.i, 1
  store i32 %14, ptr %8, align 4, !tbaa !8
  br label %18

15:                                               ; preds = %11
  %.not.i.i = icmp eq i32 %.val.i.i, 0
  br i1 %.not.i.i, label %18, label %16

16:                                               ; preds = %15
  tail call void @lean_inc_ref_cold(ptr noundef nonnull %8) #5
  br label %18

lean_array_uget.exit:                             ; preds = %6
  %17 = tail call ptr @l_Lean_Syntax_getArgs(ptr noundef %8) #5
  br label %lean_nat_lt.exit

18:                                               ; preds = %13, %15, %16
  %19 = tail call ptr @l_Lean_Syntax_getArgs(ptr noundef nonnull %8) #5
  %20 = load i32, ptr %8, align 4, !tbaa !8
  %21 = icmp sgt i32 %20, 1
  br i1 %21, label %22, label %24, !prof !11

22:                                               ; preds = %18
  %23 = add nsw i32 %20, -1
  store i32 %23, ptr %8, align 4, !tbaa !8
  br label %lean_nat_lt.exit

24:                                               ; preds = %18
  %.not.i = icmp eq i32 %20, 0
  br i1 %.not.i, label %lean_nat_lt.exit, label %25

25:                                               ; preds = %24
  tail call void @lean_dec_ref_cold(ptr noundef nonnull %8) #5
  br label %lean_nat_lt.exit

lean_nat_lt.exit:                                 ; preds = %lean_array_uget.exit, %22, %24, %25
  %26 = phi ptr [ %17, %lean_array_uget.exit ], [ %19, %22 ], [ %19, %24 ], [ %19, %25 ]
  %27 = getelementptr i8, ptr %26, i64 8
  %.val = load i64, ptr %27, align 8, !tbaa !13
  %.mask = and i64 %.val, 9223372036854775807
  %.not57 = icmp eq i64 %.mask, 0
  br i1 %.not57, label %lean_dec.exit39, label %lean_dec.exit37

lean_dec.exit39:                                  ; preds = %lean_nat_lt.exit
  %28 = ptrtoint ptr %26 to i64
  %29 = and i64 %28, 1
  %.not59 = icmp eq i64 %29, 0
  br i1 %.not59, label %30, label %lean_dec.exit38

30:                                               ; preds = %lean_dec.exit39
  %31 = load i32, ptr %26, align 4, !tbaa !8
  %32 = icmp sgt i32 %31, 1
  br i1 %32, label %33, label %35, !prof !11

33:                                               ; preds = %30
  %34 = add nsw i32 %31, -1
  store i32 %34, ptr %26, align 4, !tbaa !8
  br label %lean_dec.exit38

35:                                               ; preds = %30
  %.not.i43 = icmp eq i32 %31, 0
  br i1 %.not.i43, label %lean_dec.exit38, label %36

36:                                               ; preds = %35
  tail call void @lean_dec_ref_cold(ptr noundef nonnull %26) #5
  br label %lean_dec.exit38

lean_dec.exit37:                                  ; preds = %lean_nat_lt.exit
  %37 = tail call zeroext i8 @l_Array_anyMUnsafe_any___at_ImportCompletion_isImportCmdCompletionRequest___spec__1(ptr noundef %0, ptr noundef nonnull %26, i64 noundef 0, i64 noundef %.mask)
  %38 = ptrtoint ptr %26 to i64
  %39 = and i64 %38, 1
  %.not58 = icmp eq i64 %39, 0
  br i1 %.not58, label %40, label %lean_dec.exit

40:                                               ; preds = %lean_dec.exit37
  %41 = load i32, ptr %26, align 4, !tbaa !8
  %42 = icmp sgt i32 %41, 1
  br i1 %42, label %43, label %45, !prof !11

43:                                               ; preds = %40
  %44 = add nsw i32 %41, -1
  store i32 %44, ptr %26, align 4, !tbaa !8
  br label %lean_dec.exit

45:                                               ; preds = %40
  %.not.i47 = icmp eq i32 %41, 0
  br i1 %.not.i47, label %lean_dec.exit, label %46

46:                                               ; preds = %45
  tail call void @lean_dec_ref_cold(ptr noundef nonnull %26) #5
  br label %lean_dec.exit

lean_dec.exit:                                    ; preds = %46, %45, %43, %lean_dec.exit37
  %47 = icmp eq i8 %37, 0
  br i1 %47, label %lean_dec.exit38, label %lean_dec.exit._crit_edge

lean_dec.exit38:                                  ; preds = %lean_dec.exit, %lean_dec.exit39, %33, %35, %36
  %.333 = add i64 %.03061, 1
  %.not = icmp eq i64 %.333, %3
  br i1 %.not, label %lean_dec.exit._crit_edge, label %6

lean_dec.exit._crit_edge:                         ; preds = %lean_dec.exit38, %lean_dec.exit, %4
  %.3.ph = phi i8 [ 0, %4 ], [ 1, %lean_dec.exit ], [ 0, %lean_dec.exit38 ]
  ret i8 %.3.ph
}